target datalayout = "e-m:e-p270:32:32-p271:32:32-p272:64:64-i64:64-i128:128-f80:128-n8:16:32:64-S128"
target triple = "x86_64-unknown-linux-gnu"

%"class.std::set.0" = type { %"class.std::_Rb_tree.1" }
%"class.std::_Rb_tree.1" = type { %"struct.std::_Rb_tree<QuantLib::Observer *, QuantLib::Observer *, std::_Identity<QuantLib::Observer *>, std::less<QuantLib::Observer *>>::_Rb_tree_impl" }
%"struct.std::_Rb_tree<QuantLib::Observer *, QuantLib::Observer *, std::_Identity<QuantLib::Observer *>, std::less<QuantLib::Observer *>>::_Rb_tree_impl" = type { [8 x i8], %"struct.std::_Rb_tree_header" }
%"struct.std::_Rb_tree_header" = type { %"struct.std::_Rb_tree_node_base", i64 }
%"struct.std::_Rb_tree_node_base" = type { i32, ptr, ptr, ptr }
%"class.std::set" = type { %"class.std::_Rb_tree" }
%"class.std::_Rb_tree" = type { %"struct.std::_Rb_tree<boost::shared_ptr<QuantLib::Observable>, boost::shared_ptr<QuantLib::Observable>, std::_Identity<boost::shared_ptr<QuantLib::Observable>>, std::less<boost::shared_ptr<QuantLib::Observable>>>::_Rb_tree_impl" }
%"struct.std::_Rb_tree<boost::shared_ptr<QuantLib::Observable>, boost::shared_ptr<QuantLib::Observable>, std::_Identity<boost::shared_ptr<QuantLib::Observable>>, std::less<boost::shared_ptr<QuantLib::Observable>>>::_Rb_tree_impl" = type { [8 x i8], %"struct.std::_Rb_tree_header" }
%"class.boost::detail::shared_count" = type { ptr }
%"class.QuantLib::Observable" = type { ptr, %"class.std::set.0" }
%"class.QuantLib::Observer" = type { ptr, %"class.std::set" }
%"class.QuantLib::Date" = type { i64 }
%"class.QuantLib::ArithmeticAverageOIS" = type { %"class.QuantLib::Swap.base", i32, %"class.std::vector.35", i32, i32, double, %"class.QuantLib::DayCounter", %"class.boost::shared_ptr.58", double, i8, double, double, %"class.QuantLib::Observable", %"class.QuantLib::Observer" }
%"class.QuantLib::Swap.base" = type { %"class.QuantLib::Instrument.base", %"class.std::vector.59", %"class.std::vector.35", %"class.std::vector.35", %"class.std::vector.35", %"class.std::vector.35", %"class.std::vector.35", double }
%"class.QuantLib::Instrument.base" = type { %"class.QuantLib::LazyObject.base", double, double, %"class.QuantLib::Date", %"class.std::map.18", %"class.boost::shared_ptr.24" }
%"class.QuantLib::LazyObject.base" = type <{ ptr, i8, i8, i8, i8 }>
%"class.std::map.18" = type { %"class.std::_Rb_tree.19" }
%"class.std::_Rb_tree.19" = type { %"struct.std::_Rb_tree<std::__cxx11::basic_string<char>, std::pair<const std::__cxx11::basic_string<char>, boost::any>, std::_Select1st<std::pair<const std::__cxx11::basic_string<char>, boost::any>>, std::less<std::__cxx11::basic_string<char>>>::_Rb_tree_impl" }
%"struct.std::_Rb_tree<std::__cxx11::basic_string<char>, std::pair<const std::__cxx11::basic_string<char>, boost::any>, std::_Select1st<std::pair<const std::__cxx11::basic_string<char>, boost::any>>, std::less<std::__cxx11::basic_string<char>>>::_Rb_tree_impl" = type { [8 x i8], %"struct.std::_Rb_tree_header" }
%"class.boost::shared_ptr.24" = type { ptr, %"class.boost::detail::shared_count" }
%"class.std::vector.59" = type { %"struct.std::_Vector_base.60" }
%"struct.std::_Vector_base.60" = type { %"struct.std::_Vector_base<std::vector<boost::shared_ptr<QuantLib::CashFlow>>, std::allocator<std::vector<boost::shared_ptr<QuantLib::CashFlow>>>>::_Vector_impl" }
%"struct.std::_Vector_base<std::vector<boost::shared_ptr<QuantLib::CashFlow>>, std::allocator<std::vector<boost::shared_ptr<QuantLib::CashFlow>>>>::_Vector_impl" = type { %"struct.std::_Vector_base<std::vector<boost::shared_ptr<QuantLib::CashFlow>>, std::allocator<std::vector<boost::shared_ptr<QuantLib::CashFlow>>>>::_Vector_impl_data" }
%"struct.std::_Vector_base<std::vector<boost::shared_ptr<QuantLib::CashFlow>>, std::allocator<std::vector<boost::shared_ptr<QuantLib::CashFlow>>>>::_Vector_impl_data" = type { ptr, ptr, ptr }
%"class.std::vector.35" = type { %"struct.std::_Vector_base.36" }
%"struct.std::_Vector_base.36" = type { %"struct.std::_Vector_base<double, std::allocator<double>>::_Vector_impl" }
%"struct.std::_Vector_base<double, std::allocator<double>>::_Vector_impl" = type { %"struct.std::_Vector_base<double, std::allocator<double>>::_Vector_impl_data" }
%"struct.std::_Vector_base<double, std::allocator<double>>::_Vector_impl_data" = type { ptr, ptr, ptr }
%"class.QuantLib::DayCounter" = type { %"class.boost::shared_ptr.16" }
%"class.boost::shared_ptr.16" = type { ptr, %"class.boost::detail::shared_count" }
%"class.boost::shared_ptr.58" = type { ptr, %"class.boost::detail::shared_count" }
%"class.QuantLib::Instrument" = type { %"class.QuantLib::LazyObject.base", double, double, %"class.QuantLib::Date", %"class.std::map.18", %"class.boost::shared_ptr.24", %"class.QuantLib::Observable", %"class.QuantLib::Observer" }

@_ZZNK8QuantLib20ArithmeticAverageOIS10fairSpreadEvE10basisPoint = internal global double 1.000000e-04, align 8

; Function Attrs: mustprogress uwtable
define noundef double @_ZNK8QuantLib20ArithmeticAverageOIS10fairSpreadEv(ptr noundef nonnull align 8 dereferenceable(368) %this) #2 align 2 {
entry:
  %this.addr = alloca ptr, align 8
  store ptr %this, ptr %this.addr, align 8, !tbaa !3
  %this1 = load ptr, ptr %this.addr, align 8
  %vtable = load ptr, ptr %this1, align 8, !tbaa !20
  %vfn = getelementptr inbounds ptr, ptr %vtable, i64 3
  %0 = load ptr, ptr %vfn, align 8
  call void %0(ptr noundef nonnull align 8 dereferenceable(104) %this1)
  %spread_ = getelementptr inbounds nuw %"class.QuantLib::ArithmeticAverageOIS", ptr %this1, i32 0, i32 8
  %1 = load double, ptr %spread_, align 8, !tbaa !59
  %NPV_ = getelementptr inbounds nuw %"class.QuantLib::Instrument", ptr %this1, i32 0, i32 1
  %2 = load double, ptr %NPV_, align 8, !tbaa !86
  %call = call noundef double @_ZNK8QuantLib20ArithmeticAverageOIS15overnightLegBPSEv(ptr noundef nonnull align 8 dereferenceable(368) %this1)
  %3 = load double, ptr @_ZZNK8QuantLib20ArithmeticAverageOIS10fairSpreadEvE10basisPoint, align 8, !tbaa !26
  %div = fdiv double %call, %3
  %div2 = fdiv double %2, %div
  %sub = fsub double %1, %div2
  ret double %sub
}